target datalayout = "e-m:e-p270:32:32-p271:32:32-p272:64:64-i64:64-i128:128-f80:128-n8:16:32:64-S128"
target triple = "x86_64-pc-linux-gnu"

%union.pthread_mutex_t = type { %struct.__pthread_mutex_s }
%struct.__pthread_mutex_s = type { i32, i32, i32, i32, i32, i16, i16, %struct.__pthread_internal_list }
%struct.__pthread_internal_list = type { ptr, ptr }
%struct.itemstats_t = type { i64, i64, i64, i64, i64, i64, i64, i64, i64, i64, i64, i64, i64, i64, i64, i64, i64, i64, i64, i64, i32 }
%struct.settings = type { i64, i32, i32, i32, ptr, i32, i32, i32, ptr, ptr, i32, double, i32, i32, i32, i8, i32, i32, i8, i32, i32, i32, i32, i32, i32, i8, i8, i8, i8, i8, i8, i8, i32, i32, double, double, i32, i32, i8, i32, i8, i8, ptr, i32, i32, i32, i32, double, double, i32, i8, i32, i32, i32, i32, i32, i8, i8, i8, ptr, i32, i32, i32, i32, i32, i32, i32, i32, i32, i32, double, i8, i32, i32, ptr, i32 }
%struct._stritem = type { ptr, ptr, ptr, i32, i32, i32, i16, i16, i8, i8, [0 x %union.anon] }
%union.anon = type { i64 }
%struct._strchunk = type { ptr, ptr, ptr, i32, i32, i32, i16, i16, i8, i8, [0 x i8] }

@lru_locks = external global [256 x %union.pthread_mutex_t], align 16
@itemstats = internal global [256 x %struct.itemstats_t] zeroinitializer, align 16
@settings = external global %struct.settings, align 8
@current_time = external global i32, align 4

; Function Attrs: nounwind uwtable
define internal i64 @item_make_header(i8 noundef zeroext %0, i32 noundef %1, i32 noundef %2, ptr noundef %3, ptr noundef %4) #0 {
  %6 = alloca i8, align 1
  %7 = alloca i32, align 4
  %8 = alloca i32, align 4
  %9 = alloca ptr, align 8
  %10 = alloca ptr, align 8
  store i8 %0, ptr %6, align 1, !tbaa !30
  store i32 %1, ptr %7, align 4, !tbaa !4
  store i32 %2, ptr %8, align 4, !tbaa !4
  store ptr %3, ptr %9, align 8, !tbaa !65
  store ptr %4, ptr %10, align 8, !tbaa !65
  %11 = load i32, ptr %7, align 4, !tbaa !4
  %12 = icmp eq i32 %11, 0
  br i1 %12, label %13, label %15

13:                                               ; preds = %5
  %14 = load ptr, ptr %10, align 8, !tbaa !65
  store i8 0, ptr %14, align 1, !tbaa !30
  br label %17

15:                                               ; preds = %5
  %16 = load ptr, ptr %10, align 8, !tbaa !65
  store i8 4, ptr %16, align 1, !tbaa !30
  br label %17

17:                                               ; preds = %15, %13
  %18 = load i8, ptr %6, align 1, !tbaa !30
  %19 = zext i8 %18 to i64
  %20 = add i64 48, %19
  %21 = load ptr, ptr %10, align 8, !tbaa !65
  %22 = load i8, ptr %21, align 1, !tbaa !30
  %23 = zext i8 %22 to i64
  %24 = add i64 %20, %23
  %25 = load i32, ptr %8, align 4, !tbaa !4
  %26 = sext i32 %25 to i64
  %27 = add i64 %24, %26
  ret i64 %27
}

; Function Attrs: nounwind uwtable
define dso_local ptr @do_item_alloc(ptr noundef %0, i64 noundef %1, i32 noundef %2, i32 noundef %3, i32 noundef %4) #0 {
  %6 = alloca ptr, align 8
  %7 = alloca ptr, align 8
  %8 = alloca i64, align 8
  %9 = alloca i32, align 4
  %10 = alloca i32, align 4
  %11 = alloca i32, align 4
  %12 = alloca i8, align 1
  %13 = alloca ptr, align 8
  %14 = alloca [40 x i8], align 16
  %15 = alloca i32, align 4
  %16 = alloca i64, align 8
  %17 = alloca i32, align 4
  %18 = alloca i32, align 4
  %19 = alloca i32, align 4
  %20 = alloca ptr, align 8
  store ptr %0, ptr %7, align 8, !tbaa !65
  store i64 %1, ptr %8, align 8, !tbaa !10
  store i32 %2, ptr %9, align 4, !tbaa !4
  store i32 %3, ptr %10, align 4, !tbaa !4
  store i32 %4, ptr %11, align 4, !tbaa !4
  call void @llvm.lifetime.start.p0(i64 1, ptr %12) #9
  call void @llvm.lifetime.start.p0(i64 8, ptr %13) #9
  store ptr null, ptr %13, align 8, !tbaa !16
  call void @llvm.lifetime.start.p0(i64 40, ptr %14) #9
  %21 = load i32, ptr %11, align 4, !tbaa !4
  %22 = icmp slt i32 %21, 2
  br i1 %22, label %23, label %24

23:                                               ; preds = %5
  store ptr null, ptr %6, align 8
  store i32 1, ptr %15, align 4
  br label %253

24:                                               ; preds = %5
  call void @llvm.lifetime.start.p0(i64 8, ptr %16) #9
  %25 = load i64, ptr %8, align 8, !tbaa !10
  %26 = add i64 %25, 1
  %27 = trunc i64 %26 to i8
  %28 = load i32, ptr %9, align 4, !tbaa !4
  %29 = load i32, ptr %11, align 4, !tbaa !4
  %30 = getelementptr inbounds [40 x i8], ptr %14, i64 0, i64 0
  %31 = call i64 @item_make_header(i8 noundef zeroext %27, i32 noundef %28, i32 noundef %29, ptr noundef %30, ptr noundef %12)
  store i64 %31, ptr %16, align 8, !tbaa !10
  %32 = load i8, ptr getelementptr inbounds nuw (%struct.settings, ptr @settings, i32 0, i32 18), align 8, !tbaa !66, !range !26, !noundef !27
  %33 = trunc i8 %32 to i1
  br i1 %33, label %34, label %37

34:                                               ; preds = %24
  %35 = load i64, ptr %16, align 8, !tbaa !10
  %36 = add i64 %35, 8
  store i64 %36, ptr %16, align 8, !tbaa !10
  br label %37

37:                                               ; preds = %34, %24
  call void @llvm.lifetime.start.p0(i64 4, ptr %17) #9
  %38 = load i64, ptr %16, align 8, !tbaa !10
  %39 = call i32 @slabs_clsid(i64 noundef %38)
  store i32 %39, ptr %17, align 4, !tbaa !4
  call void @llvm.lifetime.start.p0(i64 4, ptr %18) #9
  store i32 0, ptr %18, align 4, !tbaa !4
  %40 = load i32, ptr %17, align 4, !tbaa !4
  %41 = icmp eq i32 %40, 0
  br i1 %41, label %42, label %43

42:                                               ; preds = %37
  store ptr null, ptr %6, align 8
  store i32 1, ptr %15, align 4
  br label %252

43:                                               ; preds = %37
  %44 = load i64, ptr %16, align 8, !tbaa !10
  %45 = load i32, ptr getelementptr inbounds nuw (%struct.settings, ptr @settings, i32 0, i32 22), align 8, !tbaa !64
  %46 = sext i32 %45 to i64
  %47 = icmp ugt i64 %44, %46
  br i1 %47, label %48, label %82

48:                                               ; preds = %43
  call void @llvm.lifetime.start.p0(i64 4, ptr %19) #9
  %49 = load i64, ptr %8, align 8, !tbaa !10
  %50 = add i64 %49, 1
  %51 = load i8, ptr %12, align 1, !tbaa !30
  %52 = zext i8 %51 to i64
  %53 = add i64 %50, %52
  %54 = add i64 %53, 48
  %55 = add i64 %54, 48
  %56 = trunc i64 %55 to i32
  store i32 %56, ptr %19, align 4, !tbaa !4
  %57 = load i8, ptr getelementptr inbounds nuw (%struct.settings, ptr @settings, i32 0, i32 18), align 8, !tbaa !66, !range !26, !noundef !27
  %58 = trunc i8 %57 to i1
  br i1 %58, label %59, label %64

59:                                               ; preds = %48
  %60 = load i32, ptr %19, align 4, !tbaa !4
  %61 = sext i32 %60 to i64
  %62 = add i64 %61, 8
  %63 = trunc i64 %62 to i32
  store i32 %63, ptr %19, align 4, !tbaa !4
  br label %64

64:                                               ; preds = %59, %48
  %65 = load i32, ptr %19, align 4, !tbaa !4
  %66 = sext i32 %65 to i64
  %67 = call i32 @slabs_clsid(i64 noundef %66)
  store i32 %67, ptr %18, align 4, !tbaa !4
  %68 = load i32, ptr %19, align 4, !tbaa !4
  %69 = sext i32 %68 to i64
  %70 = load i32, ptr %18, align 4, !tbaa !4
  %71 = call ptr @do_item_alloc_pull(i64 noundef %69, i32 noundef %70)
  store ptr %71, ptr %13, align 8, !tbaa !16
  %72 = load ptr, ptr %13, align 8, !tbaa !16
  %73 = icmp ne ptr %72, null
  br i1 %73, label %74, label %81

74:                                               ; preds = %64
  %75 = load ptr, ptr %13, align 8, !tbaa !16
  %76 = getelementptr inbounds nuw %struct._stritem, ptr %75, i32 0, i32 7
  %77 = load i16, ptr %76, align 2, !tbaa !34
  %78 = zext i16 %77 to i32
  %79 = or i32 %78, 32
  %80 = trunc i32 %79 to i16
  store i16 %80, ptr %76, align 2, !tbaa !34
  br label %81

81:                                               ; preds = %74, %64
  call void @llvm.lifetime.end.p0(i64 4, ptr %19) #9
  br label %86

82:                                               ; preds = %43
  %83 = load i64, ptr %16, align 8, !tbaa !10
  %84 = load i32, ptr %17, align 4, !tbaa !4
  %85 = call ptr @do_item_alloc_pull(i64 noundef %83, i32 noundef %84)
  store ptr %85, ptr %13, align 8, !tbaa !16
  br label %86

86:                                               ; preds = %82, %81
  %87 = load ptr, ptr %13, align 8, !tbaa !16
  %88 = icmp eq ptr %87, null
  br i1 %88, label %89, label %104

89:                                               ; preds = %86
  %90 = load i32, ptr %17, align 4, !tbaa !4
  %91 = zext i32 %90 to i64
  %92 = getelementptr inbounds nuw [256 x %union.pthread_mutex_t], ptr @lru_locks, i64 0, i64 %91
  %93 = call i32 @pthread_mutex_lock(ptr noundef %92) #9
  %94 = load i32, ptr %17, align 4, !tbaa !4
  %95 = zext i32 %94 to i64
  %96 = getelementptr inbounds nuw [256 x %struct.itemstats_t], ptr @itemstats, i64 0, i64 %95
  %97 = getelementptr inbounds nuw %struct.itemstats_t, ptr %96, i32 0, i32 3
  %98 = load i64, ptr %97, align 8, !tbaa !67
  %99 = add i64 %98, 1
  store i64 %99, ptr %97, align 8, !tbaa !67
  %100 = load i32, ptr %17, align 4, !tbaa !4
  %101 = zext i32 %100 to i64
  %102 = getelementptr inbounds nuw [256 x %union.pthread_mutex_t], ptr @lru_locks, i64 0, i64 %101
  %103 = call i32 @pthread_mutex_unlock(ptr noundef %102) #9
  store ptr null, ptr %6, align 8
  store i32 1, ptr %15, align 4
  br label %252

104:                                              ; preds = %86
  %105 = load ptr, ptr %13, align 8, !tbaa !16
  %106 = getelementptr inbounds nuw %struct._stritem, ptr %105, i32 0, i32 1
  store ptr null, ptr %106, align 8, !tbaa !16
  %107 = load ptr, ptr %13, align 8, !tbaa !16
  %108 = getelementptr inbounds nuw %struct._stritem, ptr %107, i32 0, i32 0
  store ptr null, ptr %108, align 8, !tbaa !16
  %109 = load i8, ptr getelementptr inbounds nuw (%struct.settings, ptr @settings, i32 0, i32 50), align 4, !tbaa !68, !range !26, !noundef !27
  %110 = trunc i8 %109 to i1
  br i1 %110, label %111, label %120

111:                                              ; preds = %104
  %112 = load i32, ptr %10, align 4, !tbaa !4
  %113 = load volatile i32, ptr @current_time, align 4, !tbaa !4
  %114 = sub i32 %112, %113
  %115 = load i32, ptr getelementptr inbounds nuw (%struct.settings, ptr @settings, i32 0, i32 51), align 8, !tbaa !69
  %116 = icmp ule i32 %114, %115
  br i1 %116, label %117, label %120

117:                                              ; preds = %111
  %118 = load i32, ptr %17, align 4, !tbaa !4
  %119 = or i32 %118, 192
  store i32 %119, ptr %17, align 4, !tbaa !4
  br label %130

120:                                              ; preds = %111, %104
  %121 = load i8, ptr getelementptr inbounds nuw (%struct.settings, ptr @settings, i32 0, i32 29), align 8, !tbaa !25, !range !26, !noundef !27
  %122 = trunc i8 %121 to i1
  br i1 %122, label %123, label %126

123:                                              ; preds = %120
  %124 = load i32, ptr %17, align 4, !tbaa !4
  %125 = or i32 %124, 0
  store i32 %125, ptr %17, align 4, !tbaa !4
  br label %129

126:                                              ; preds = %120
  %127 = load i32, ptr %17, align 4, !tbaa !4
  %128 = or i32 %127, 128
  store i32 %128, ptr %17, align 4, !tbaa !4
  br label %129

129:                                              ; preds = %126, %123
  br label %130

130:                                              ; preds = %129, %117
  %131 = load i32, ptr %17, align 4, !tbaa !4
  %132 = trunc i32 %131 to i8
  %133 = load ptr, ptr %13, align 8, !tbaa !16
  %134 = getelementptr inbounds nuw %struct._stritem, ptr %133, i32 0, i32 8
  store i8 %132, ptr %134, align 8, !tbaa !30
  br label %135

135:                                              ; preds = %136, %130
  br i1 false, label %136, label %137

136:                                              ; preds = %135
  br label %135

137:                                              ; preds = %135
  %138 = load i8, ptr getelementptr inbounds nuw (%struct.settings, ptr @settings, i32 0, i32 18), align 8, !tbaa !66, !range !26, !noundef !27
  %139 = trunc i8 %138 to i1
  %140 = select i1 %139, i32 2, i32 0
  %141 = load ptr, ptr %13, align 8, !tbaa !16
  %142 = getelementptr inbounds nuw %struct._stritem, ptr %141, i32 0, i32 7
  %143 = load i16, ptr %142, align 2, !tbaa !34
  %144 = zext i16 %143 to i32
  %145 = or i32 %144, %140
  %146 = trunc i32 %145 to i16
  store i16 %146, ptr %142, align 2, !tbaa !34
  %147 = load i8, ptr %12, align 1, !tbaa !30
  %148 = zext i8 %147 to i32
  %149 = icmp ne i32 %148, 0
  %150 = select i1 %149, i32 256, i32 0
  %151 = load ptr, ptr %13, align 8, !tbaa !16
  %152 = getelementptr inbounds nuw %struct._stritem, ptr %151, i32 0, i32 7
  %153 = load i16, ptr %152, align 2, !tbaa !34
  %154 = zext i16 %153 to i32
  %155 = or i32 %154, %150
  %156 = trunc i32 %155 to i16
  store i16 %156, ptr %152, align 2, !tbaa !34
  %157 = load i64, ptr %8, align 8, !tbaa !10
  %158 = trunc i64 %157 to i8
  %159 = load ptr, ptr %13, align 8, !tbaa !16
  %160 = getelementptr inbounds nuw %struct._stritem, ptr %159, i32 0, i32 9
  store i8 %158, ptr %160, align 1, !tbaa !30
  %161 = load i32, ptr %11, align 4, !tbaa !4
  %162 = load ptr, ptr %13, align 8, !tbaa !16
  %163 = getelementptr inbounds nuw %struct._stritem, ptr %162, i32 0, i32 5
  store i32 %161, ptr %163, align 8, !tbaa !4
  %164 = load ptr, ptr %13, align 8, !tbaa !16
  %165 = getelementptr inbounds nuw %struct._stritem, ptr %164, i32 0, i32 10
  %166 = load ptr, ptr %13, align 8, !tbaa !16
  %167 = getelementptr inbounds nuw %struct._stritem, ptr %166, i32 0, i32 7
  %168 = load i16, ptr %167, align 2, !tbaa !34
  %169 = zext i16 %168 to i32
  %170 = and i32 %169, 2
  %171 = icmp ne i32 %170, 0
  %172 = select i1 %171, i64 8, i64 0
  %173 = getelementptr inbounds nuw i8, ptr %165, i64 %172
  %174 = load ptr, ptr %7, align 8, !tbaa !65
  %175 = load i64, ptr %8, align 8, !tbaa !10
  call void @llvm.memcpy.p0.p0.i64(ptr align 1 %173, ptr align 1 %174, i64 %175, i1 false)
  %176 = load i32, ptr %10, align 4, !tbaa !4
  %177 = load ptr, ptr %13, align 8, !tbaa !16
  %178 = getelementptr inbounds nuw %struct._stritem, ptr %177, i32 0, i32 4
  store i32 %176, ptr %178, align 4, !tbaa !4
  %179 = load i8, ptr %12, align 1, !tbaa !30
  %180 = zext i8 %179 to i32
  %181 = icmp sgt i32 %180, 0
  br i1 %181, label %182, label %200

182:                                              ; preds = %137
  %183 = load ptr, ptr %13, align 8, !tbaa !16
  %184 = getelementptr inbounds nuw %struct._stritem, ptr %183, i32 0, i32 10
  %185 = load ptr, ptr %13, align 8, !tbaa !16
  %186 = getelementptr inbounds nuw %struct._stritem, ptr %185, i32 0, i32 9
  %187 = load i8, ptr %186, align 1, !tbaa !30
  %188 = zext i8 %187 to i32
  %189 = sext i32 %188 to i64
  %190 = getelementptr inbounds i8, ptr %184, i64 %189
  %191 = getelementptr inbounds i8, ptr %190, i64 1
  %192 = load ptr, ptr %13, align 8, !tbaa !16
  %193 = getelementptr inbounds nuw %struct._stritem, ptr %192, i32 0, i32 7
  %194 = load i16, ptr %193, align 2, !tbaa !34
  %195 = zext i16 %194 to i32
  %196 = and i32 %195, 2
  %197 = icmp ne i32 %196, 0
  %198 = select i1 %197, i64 8, i64 0
  %199 = getelementptr inbounds nuw i8, ptr %191, i64 %198
  call void @llvm.memcpy.p0.p0.i64(ptr align 1 %199, ptr align 4 %9, i64 4, i1 false)
  br label %200

200:                                              ; preds = %182, %137
  %201 = load ptr, ptr %13, align 8, !tbaa !16
  %202 = getelementptr inbounds nuw %struct._stritem, ptr %201, i32 0, i32 7
  %203 = load i16, ptr %202, align 2, !tbaa !34
  %204 = zext i16 %203 to i32
  %205 = and i32 %204, 32
  %206 = icmp ne i32 %205, 0
  br i1 %206, label %207, label %248

207:                                              ; preds = %200
  call void @llvm.lifetime.start.p0(i64 8, ptr %20) #9
  %208 = load ptr, ptr %13, align 8, !tbaa !16
  %209 = getelementptr inbounds nuw %struct._stritem, ptr %208, i32 0, i32 10
  %210 = load ptr, ptr %13, align 8, !tbaa !16
  %211 = getelementptr inbounds nuw %struct._stritem, ptr %210, i32 0, i32 9
  %212 = load i8, ptr %211, align 1, !tbaa !30
  %213 = zext i8 %212 to i32
  %214 = sext i32 %213 to i64
  %215 = getelementptr inbounds i8, ptr %209, i64 %214
  %216 = getelementptr inbounds i8, ptr %215, i64 1
  %217 = load ptr, ptr %13, align 8, !tbaa !16
  %218 = getelementptr inbounds nuw %struct._stritem, ptr %217, i32 0, i32 7
  %219 = load i16, ptr %218, align 2, !tbaa !34
  %220 = zext i16 %219 to i32
  %221 = and i32 %220, 256
  %222 = icmp ne i32 %221, 0
  %223 = select i1 %222, i64 4, i64 0
  %224 = getelementptr inbounds nuw i8, ptr %216, i64 %223
  %225 = load ptr, ptr %13, align 8, !tbaa !16
  %226 = getelementptr inbounds nuw %struct._stritem, ptr %225, i32 0, i32 7
  %227 = load i16, ptr %226, align 2, !tbaa !34
  %228 = zext i16 %227 to i32
  %229 = and i32 %228, 2
  %230 = icmp ne i32 %229, 0
  %231 = select i1 %230, i64 8, i64 0
  %232 = getelementptr inbounds nuw i8, ptr %224, i64 %231
  store ptr %232, ptr %20, align 8, !tbaa !62
  %233 = load ptr, ptr %20, align 8, !tbaa !62
  %234 = getelementptr inbounds nuw %struct._strchunk, ptr %233, i32 0, i32 0
  store ptr null, ptr %234, align 8, !tbaa !62
  %235 = load ptr, ptr %20, align 8, !tbaa !62
  %236 = getelementptr inbounds nuw %struct._strchunk, ptr %235, i32 0, i32 1
  store ptr null, ptr %236, align 8, !tbaa !62
  %237 = load ptr, ptr %20, align 8, !tbaa !62
  %238 = getelementptr inbounds nuw %struct._strchunk, ptr %237, i32 0, i32 4
  store i32 0, ptr %238, align 4, !tbaa !4
  %239 = load ptr, ptr %20, align 8, !tbaa !62
  %240 = getelementptr inbounds nuw %struct._strchunk, ptr %239, i32 0, i32 3
  store i32 0, ptr %240, align 8, !tbaa !4
  %241 = load ptr, ptr %13, align 8, !tbaa !16
  %242 = load ptr, ptr %20, align 8, !tbaa !62
  %243 = getelementptr inbounds nuw %struct._strchunk, ptr %242, i32 0, i32 2
  store ptr %241, ptr %243, align 8, !tbaa !16
  %244 = load i32, ptr %18, align 4, !tbaa !4
  %245 = trunc i32 %244 to i8
  %246 = load ptr, ptr %20, align 8, !tbaa !62
  %247 = getelementptr inbounds nuw %struct._strchunk, ptr %246, i32 0, i32 9
  store i8 %245, ptr %247, align 1, !tbaa !30
  call void @llvm.lifetime.end.p0(i64 8, ptr %20) #9
  br label %248

248:                                              ; preds = %207, %200
  %249 = load ptr, ptr %13, align 8, !tbaa !16
  %250 = getelementptr inbounds nuw %struct._stritem, ptr %249, i32 0, i32 2
  store ptr null, ptr %250, align 8, !tbaa !16
  %251 = load ptr, ptr %13, align 8, !tbaa !16
  store ptr %251, ptr %6, align 8
  store i32 1, ptr %15, align 4
  br label %252

252:                                              ; preds = %248, %89, %42
  call void @llvm.lifetime.end.p0(i64 4, ptr %18) #9
  call void @llvm.lifetime.end.p0(i64 4, ptr %17) #9
  call void @llvm.lifetime.end.p0(i64 8, ptr %16) #9
  br label %253

253:                                              ; preds = %252, %23
  call void @llvm.lifetime.end.p0(i64 40, ptr %14) #9
  call void @llvm.lifetime.end.p0(i64 8, ptr %13) #9
  call void @llvm.lifetime.end.p0(i64 1, ptr %12) #9
  %254 = load ptr, ptr %6, align 8
  ret ptr %254
}