; Function Attrs: nounwind uwtable
define dso_local ptr @do_item_alloc(ptr noundef readonly captures(none) %0, i64 noundef %1, i32 noundef %2, i32 noundef %3, i32 noundef %4) local_unnamed_addr #0 {
  %6 = icmp slt i32 %4, 2
  br i1 %6, label %109, label %7

7:                                                ; preds = %5
  %8 = add i64 %1, 1
  %9 = icmp eq i32 %2, 0
  %10 = and i64 %8, 255
  %11 = add nuw nsw i64 %10, 48
  %12 = select i1 %9, i64 0, i64 4
  %13 = zext nneg i32 %4 to i64
  %14 = add nuw nsw i64 %11, %12
  %15 = add nuw nsw i64 %14, %13
  %16 = load i8, ptr getelementptr inbounds nuw (i8, ptr @settings, i64 104), align 8, !tbaa !62, !range !24, !noundef !25
  %17 = trunc nuw i8 %16 to i1
  %18 = add nuw nsw i64 %15, 8
  %spec.select = select i1 %17, i64 %18, i64 %15
  %19 = tail call i32 @slabs_clsid(i64 noundef %spec.select) #19
  %20 = icmp eq i32 %19, 0
  br i1 %20, label %109, label %21

21:                                               ; preds = %7
  %22 = load i32, ptr getelementptr inbounds nuw (i8, ptr @settings, i64 120), align 8, !tbaa !59
  %23 = sext i32 %22 to i64
  %24 = icmp ugt i64 %spec.select, %23
  br i1 %24, label %25, label %38

25:                                               ; preds = %21
  %26 = add i64 %12, %8
  %27 = load i8, ptr getelementptr inbounds nuw (i8, ptr @settings, i64 104), align 8, !tbaa !62, !range !24, !noundef !25
  %28 = trunc nuw i8 %27 to i1
  %spec.select75.v = select i1 %28, i64 104, i64 96
  %spec.select75 = add i64 %26, %spec.select75.v
  %sext = shl i64 %spec.select75, 32
  %29 = ashr exact i64 %sext, 32
  %30 = tail call i32 @slabs_clsid(i64 noundef %29) #19
  %31 = tail call ptr @do_item_alloc_pull(i64 poison, i32 noundef %30)
  %.not = icmp eq ptr %31, null
  br i1 %.not, label %36, label %32

32:                                               ; preds = %25
  %33 = getelementptr inbounds nuw i8, ptr %31, i64 38
  %34 = load i16, ptr %33, align 2, !tbaa !31
  %35 = or i16 %34, 32
  store i16 %35, ptr %33, align 2, !tbaa !31
  br label %36

36:                                               ; preds = %32, %25
  %37 = trunc i32 %30 to i8
  br label %40

38:                                               ; preds = %21
  %39 = tail call ptr @do_item_alloc_pull(i64 poison, i32 noundef %19)
  br label %40

40:                                               ; preds = %38, %36
  %.063 = phi ptr [ %31, %36 ], [ %39, %38 ]
  %.060 = phi i8 [ %37, %36 ], [ 0, %38 ]
  %41 = icmp eq ptr %.063, null
  br i1 %41, label %42, label %50

42:                                               ; preds = %40
  %43 = zext i32 %19 to i64
  %44 = getelementptr inbounds nuw [256 x %union.pthread_mutex_t], ptr @lru_locks, i64 0, i64 %43
  %45 = tail call i32 @pthread_mutex_lock(ptr noundef nonnull %44) #19
  %46 = getelementptr inbounds nuw [256 x %struct.itemstats_t], ptr @itemstats, i64 0, i64 %43, i32 3
  %47 = load i64, ptr %46, align 8, !tbaa !63
  %48 = add i64 %47, 1
  store i64 %48, ptr %46, align 8, !tbaa !63
  %49 = tail call i32 @pthread_mutex_unlock(ptr noundef nonnull %44) #19
  br label %109

50:                                               ; preds = %40
  tail call void @llvm.memset.p0.i64(ptr noundef nonnull align 8 dereferenceable(16) %.063, i8 0, i64 16, i1 false)
  %51 = load i8, ptr getelementptr inbounds nuw (i8, ptr @settings, i64 236), align 4, !tbaa !64, !range !24, !noundef !25
  %52 = trunc nuw i8 %51 to i1
  br i1 %52, label %53, label %59

53:                                               ; preds = %50
  %54 = load volatile i32, ptr @current_time, align 4, !tbaa !22
  %55 = sub i32 %3, %54
  %56 = load i32, ptr getelementptr inbounds nuw (i8, ptr @settings, i64 240), align 8, !tbaa !65
  %.not67 = icmp ugt i32 %55, %56
  br i1 %.not67, label %59, label %57

57:                                               ; preds = %53
  %58 = or i32 %19, 192
  br label %63

59:                                               ; preds = %53, %50
  %60 = load i8, ptr getelementptr inbounds nuw (i8, ptr @settings, i64 136), align 8, !tbaa !23, !range !24, !noundef !25
  %61 = trunc nuw i8 %60 to i1
  %62 = or i32 %19, 128
  %spec.select76 = select i1 %61, i32 %19, i32 %62
  br label %63

63:                                               ; preds = %59, %57
  %.061 = phi i32 [ %58, %57 ], [ %spec.select76, %59 ]
  %64 = trunc i32 %.061 to i8
  %65 = getelementptr inbounds nuw i8, ptr %.063, i64 40
  store i8 %64, ptr %65, align 8, !tbaa !30
  %66 = load i8, ptr getelementptr inbounds nuw (i8, ptr @settings, i64 104), align 8, !tbaa !62, !range !24, !noundef !25
  %67 = trunc nuw i8 %66 to i1
  %68 = select i1 %67, i16 2, i16 0
  %69 = getelementptr inbounds nuw i8, ptr %.063, i64 38
  %70 = load i16, ptr %69, align 2, !tbaa !31
  %71 = or i16 %68, %70
  %72 = select i1 %9, i16 0, i16 256
  %73 = or i16 %71, %72
  store i16 %73, ptr %69, align 2, !tbaa !31
  %74 = trunc i64 %1 to i8
  %75 = getelementptr inbounds nuw i8, ptr %.063, i64 41
  store i8 %74, ptr %75, align 1, !tbaa !30
  %76 = getelementptr inbounds nuw i8, ptr %.063, i64 32
  store i32 %4, ptr %76, align 8, !tbaa !22
  %77 = getelementptr inbounds nuw i8, ptr %.063, i64 48
  %78 = shl i16 %71, 2
  %79 = and i16 %78, 8
  %80 = zext nneg i16 %79 to i64
  %81 = getelementptr inbounds nuw i8, ptr %77, i64 %80
  tail call void @llvm.memcpy.p0.p0.i64(ptr nonnull align 1 %81, ptr align 1 %0, i64 %1, i1 false)
  %82 = getelementptr inbounds nuw i8, ptr %.063, i64 28
  store i32 %3, ptr %82, align 4, !tbaa !22
  br i1 %9, label %88, label %83

83:                                               ; preds = %63
  %84 = and i64 %1, 255
  %85 = getelementptr inbounds nuw i8, ptr %77, i64 %84
  %86 = getelementptr inbounds nuw i8, ptr %85, i64 1
  %87 = getelementptr inbounds nuw i8, ptr %86, i64 %80
  store i32 %2, ptr %87, align 1
  br label %88

88:                                               ; preds = %83, %63
  %89 = zext i16 %73 to i32
  %90 = and i32 %89, 32
  %.not72 = icmp eq i32 %90, 0
  br i1 %.not72, label %107, label %91

91:                                               ; preds = %88
  %92 = and i64 %1, 255
  %93 = getelementptr inbounds nuw i8, ptr %77, i64 %92
  %94 = getelementptr inbounds nuw i8, ptr %93, i64 1
  %95 = lshr i32 %89, 6
  %96 = and i32 %95, 4
  %97 = zext nneg i32 %96 to i64
  %98 = getelementptr inbounds nuw i8, ptr %94, i64 %97
  %99 = shl nuw nsw i32 %89, 2
  %100 = and i32 %99, 8
  %101 = zext nneg i32 %100 to i64
  %102 = getelementptr inbounds nuw i8, ptr %98, i64 %101
  %103 = getelementptr inbounds nuw i8, ptr %102, i64 28
  store i32 0, ptr %103, align 4, !tbaa !22
  %104 = getelementptr inbounds nuw i8, ptr %102, i64 24
  store i32 0, ptr %104, align 8, !tbaa !22
  %105 = getelementptr inbounds nuw i8, ptr %102, i64 16
  tail call void @llvm.memset.p0.i64(ptr noundef nonnull align 8 dereferenceable(16) %102, i8 0, i64 16, i1 false)
  store ptr %.063, ptr %105, align 8, !tbaa !28
  %106 = getelementptr inbounds nuw i8, ptr %102, i64 41
  store i8 %.060, ptr %106, align 1, !tbaa !30
  br label %107

107:                                              ; preds = %91, %88
  %108 = getelementptr inbounds nuw i8, ptr %.063, i64 16
  store ptr null, ptr %108, align 8, !tbaa !28
  br label %109

109:                                              ; preds = %42, %107, %7, %5
  %.0 = phi ptr [ null, %5 ], [ null, %42 ], [ %.063, %107 ], [ null, %7 ]
  ret ptr %.0
}